target datalayout = "e-m:e-p270:32:32-p271:32:32-p272:64:64-i64:64-i128:128-f80:128-n8:16:32:64-S128"
target triple = "x86_64-pc-linux-gnu"

%struct.Vec_Int_t_ = type { i32, i32, ptr }

; Function Attrs: nounwind uwtable
define internal i32 @Vec_IntEntry(ptr noundef %0, i32 noundef %1) #0 {
  %3 = alloca ptr, align 8
  %4 = alloca i32, align 4
  store ptr %0, ptr %3, align 8
  store i32 %1, ptr %4, align 4
  %5 = load ptr, ptr %3, align 8
  %6 = getelementptr inbounds %struct.Vec_Int_t_, ptr %5, i32 0, i32 2
  %7 = load ptr, ptr %6, align 8
  %8 = load i32, ptr %4, align 4
  %9 = sext i32 %8 to i64
  %10 = getelementptr inbounds i32, ptr %7, i64 %9
  %11 = load i32, ptr %10, align 4
  ret i32 %11
}

; Function Attrs: nounwind uwtable
define internal i32 @Vec_IntSize(ptr noundef %0) #0 {
  %2 = alloca ptr, align 8
  store ptr %0, ptr %2, align 8
  %3 = load ptr, ptr %2, align 8
  %4 = getelementptr inbounds %struct.Vec_Int_t_, ptr %3, i32 0, i32 1
  %5 = load i32, ptr %4, align 4
  ret i32 %5
}

; Function Attrs: nounwind uwtable
define internal void @Vec_IntReverseOrder(ptr noundef %0) #0 {
  %2 = alloca ptr, align 8
  %3 = alloca i32, align 4
  %4 = alloca i32, align 4
  store ptr %0, ptr %2, align 8
  store i32 0, ptr %3, align 4
  br label %5

5:                                                ; preds = %50, %1
  %6 = load i32, ptr %3, align 4
  %7 = load ptr, ptr %2, align 8
  %8 = getelementptr inbounds %struct.Vec_Int_t_, ptr %7, i32 0, i32 1
  %9 = load i32, ptr %8, align 4
  %10 = sdiv i32 %9, 2
  %11 = icmp slt i32 %6, %10
  br i1 %11, label %12, label %53

12:                                               ; preds = %5
  %13 = load ptr, ptr %2, align 8
  %14 = getelementptr inbounds %struct.Vec_Int_t_, ptr %13, i32 0, i32 2
  %15 = load ptr, ptr %14, align 8
  %16 = load i32, ptr %3, align 4
  %17 = sext i32 %16 to i64
  %18 = getelementptr inbounds i32, ptr %15, i64 %17
  %19 = load i32, ptr %18, align 4
  store i32 %19, ptr %4, align 4
  %20 = load ptr, ptr %2, align 8
  %21 = getelementptr inbounds %struct.Vec_Int_t_, ptr %20, i32 0, i32 2
  %22 = load ptr, ptr %21, align 8
  %23 = load ptr, ptr %2, align 8
  %24 = getelementptr inbounds %struct.Vec_Int_t_, ptr %23, i32 0, i32 1
  %25 = load i32, ptr %24, align 4
  %26 = sub nsw i32 %25, 1
  %27 = load i32, ptr %3, align 4
  %28 = sub nsw i32 %26, %27
  %29 = sext i32 %28 to i64
  %30 = getelementptr inbounds i32, ptr %22, i64 %29
  %31 = load i32, ptr %30, align 4
  %32 = load ptr, ptr %2, align 8
  %33 = getelementptr inbounds %struct.Vec_Int_t_, ptr %32, i32 0, i32 2
  %34 = load ptr, ptr %33, align 8
  %35 = load i32, ptr %3, align 4
  %36 = sext i32 %35 to i64
  %37 = getelementptr inbounds i32, ptr %34, i64 %36
  store i32 %31, ptr %37, align 4
  %38 = load i32, ptr %4, align 4
  %39 = load ptr, ptr %2, align 8
  %40 = getelementptr inbounds %struct.Vec_Int_t_, ptr %39, i32 0, i32 2
  %41 = load ptr, ptr %40, align 8
  %42 = load ptr, ptr %2, align 8
  %43 = getelementptr inbounds %struct.Vec_Int_t_, ptr %42, i32 0, i32 1
  %44 = load i32, ptr %43, align 4
  %45 = sub nsw i32 %44, 1
  %46 = load i32, ptr %3, align 4
  %47 = sub nsw i32 %45, %46
  %48 = sext i32 %47 to i64
  %49 = getelementptr inbounds i32, ptr %41, i64 %48
  store i32 %38, ptr %49, align 4
  br label %50

50:                                               ; preds = %12
  %51 = load i32, ptr %3, align 4
  %52 = add nsw i32 %51, 1
  store i32 %52, ptr %3, align 4
  br label %5, !llvm.loop !13

53:                                               ; preds = %5
  ret void
}

; Function Attrs: nounwind uwtable
define void @Maj3_ManFirstAndLevel(ptr noundef %0, ptr noundef %1, ptr noundef %2, i32 noundef %3, i32 noundef %4) #0 {
  %6 = alloca ptr, align 8
  %7 = alloca ptr, align 8
  %8 = alloca ptr, align 8
  %9 = alloca i32, align 4
  %10 = alloca i32, align 4
  %11 = alloca i32, align 4
  %12 = alloca i32, align 4
  %13 = alloca i32, align 4
  %14 = alloca i32, align 4
  store ptr %0, ptr %6, align 8
  store ptr %1, ptr %7, align 8
  store ptr %2, ptr %8, align 8
  store i32 %3, ptr %9, align 4
  store i32 %4, ptr %10, align 4
  store i32 0, ptr %14, align 4
  %15 = load i32, ptr %14, align 4
  %16 = load ptr, ptr %7, align 8
  %17 = getelementptr inbounds i32, ptr %16, i64 0
  store i32 %15, ptr %17, align 4
  store i32 0, ptr %12, align 4
  br label %18

18:                                               ; preds = %28, %5
  %19 = load i32, ptr %12, align 4
  %20 = load i32, ptr %9, align 4
  %21 = icmp slt i32 %19, %20
  br i1 %21, label %22, label %31

22:                                               ; preds = %18
  %23 = load ptr, ptr %8, align 8
  %24 = load i32, ptr %14, align 4
  %25 = add nsw i32 %24, 1
  store i32 %25, ptr %14, align 4
  %26 = sext i32 %24 to i64
  %27 = getelementptr inbounds i32, ptr %23, i64 %26
  store i32 0, ptr %27, align 4
  br label %28

28:                                               ; preds = %22
  %29 = load i32, ptr %12, align 4
  %30 = add nsw i32 %29, 1
  store i32 %30, ptr %12, align 4
  br label %18, !llvm.loop !10

31:                                               ; preds = %18
  %32 = load ptr, ptr %6, align 8
  call void @Vec_IntReverseOrder(ptr noundef %32)
  store i32 0, ptr %11, align 4
  br label %33

33:                                               ; preds = %67, %31
  %34 = load i32, ptr %11, align 4
  %35 = load ptr, ptr %6, align 8
  %36 = call i32 @Vec_IntSize(ptr noundef %35)
  %37 = icmp slt i32 %34, %36
  br i1 %37, label %38, label %42

38:                                               ; preds = %33
  %39 = load ptr, ptr %6, align 8
  %40 = load i32, ptr %11, align 4
  %41 = call i32 @Vec_IntEntry(ptr noundef %39, i32 noundef %40)
  store i32 %41, ptr %13, align 4
  br label %42

42:                                               ; preds = %38, %33
  %43 = phi i1 [ false, %33 ], [ true, %38 ]
  br i1 %43, label %44, label %70

44:                                               ; preds = %42
  %45 = load i32, ptr %14, align 4
  %46 = load ptr, ptr %7, align 8
  %47 = load i32, ptr %11, align 4
  %48 = add nsw i32 %47, 1
  %49 = sext i32 %48 to i64
  %50 = getelementptr inbounds i32, ptr %46, i64 %49
  store i32 %45, ptr %50, align 4
  store i32 0, ptr %12, align 4
  br label %51

51:                                               ; preds = %63, %44
  %52 = load i32, ptr %12, align 4
  %53 = load i32, ptr %13, align 4
  %54 = icmp slt i32 %52, %53
  br i1 %54, label %55, label %66

55:                                               ; preds = %51
  %56 = load i32, ptr %11, align 4
  %57 = add nsw i32 %56, 1
  %58 = load ptr, ptr %8, align 8
  %59 = load i32, ptr %14, align 4
  %60 = add nsw i32 %59, 1
  store i32 %60, ptr %14, align 4
  %61 = sext i32 %59 to i64
  %62 = getelementptr inbounds i32, ptr %58, i64 %61
  store i32 %57, ptr %62, align 4
  br label %63

63:                                               ; preds = %55
  %64 = load i32, ptr %12, align 4
  %65 = add nsw i32 %64, 1
  store i32 %65, ptr %12, align 4
  br label %51, !llvm.loop !11

66:                                               ; preds = %51
  br label %67

67:                                               ; preds = %66
  %68 = load i32, ptr %11, align 4
  %69 = add nsw i32 %68, 1
  store i32 %69, ptr %11, align 4
  br label %33, !llvm.loop !12

70:                                               ; preds = %42
  %71 = load ptr, ptr %6, align 8
  call void @Vec_IntReverseOrder(ptr noundef %71)
  ret void
}