; Function Attrs: nofree norecurse nosync nounwind memory(readwrite, inaccessiblemem: none) uwtable
define void @Maj3_ManFirstAndLevel(ptr noundef readonly captures(none) %0, ptr noundef writeonly captures(none) initializes((0, 4)) %1, ptr noundef writeonly captures(none) %2, i32 noundef %3, i32 %4) local_unnamed_addr #1 {
  store i32 0, ptr %1, align 4
  %6 = icmp sgt i32 %3, 0
  br i1 %6, label %.lr.ph.preheader, label %._crit_edge

.lr.ph.preheader:                                 ; preds = %5
  %7 = zext nneg i32 %3 to i64
  %8 = shl nuw nsw i64 %7, 2
  tail call void @llvm.memset.p0.i64(ptr align 4 %2, i8 0, i64 %8, i1 false)
  br label %._crit_edge

._crit_edge:                                      ; preds = %.lr.ph.preheader, %5
  %.0.lcssa = phi i32 [ 0, %5 ], [ %3, %.lr.ph.preheader ]
  %9 = getelementptr inbounds nuw i8, ptr %0, i64 4
  %10 = load i32, ptr %9, align 4
  %11 = icmp sgt i32 %10, 1
  br i1 %11, label %.lr.ph.i, label %Vec_IntReverseOrder.exit

.lr.ph.i:                                         ; preds = %._crit_edge
  %12 = getelementptr inbounds nuw i8, ptr %0, i64 8
  br label %13

13:                                               ; preds = %13, %.lr.ph.i
  %indvars.iv.i = phi i64 [ 0, %.lr.ph.i ], [ %indvars.iv.next.i, %13 ]
  %14 = phi i32 [ %10, %.lr.ph.i ], [ %29, %13 ]
  %15 = load ptr, ptr %12, align 8
  %16 = getelementptr inbounds nuw i32, ptr %15, i64 %indvars.iv.i
  %17 = load i32, ptr %16, align 4
  %18 = trunc nuw nsw i64 %indvars.iv.i to i32
  %19 = xor i32 %18, -1
  %20 = add i32 %14, %19
  %21 = sext i32 %20 to i64
  %22 = getelementptr inbounds i32, ptr %15, i64 %21
  %23 = load i32, ptr %22, align 4
  store i32 %23, ptr %16, align 4
  %24 = load ptr, ptr %12, align 8
  %25 = load i32, ptr %9, align 4
  %26 = add i32 %25, %19
  %27 = sext i32 %26 to i64
  %28 = getelementptr inbounds i32, ptr %24, i64 %27
  store i32 %17, ptr %28, align 4
  %indvars.iv.next.i = add nuw nsw i64 %indvars.iv.i, 1
  %29 = load i32, ptr %9, align 4
  %30 = sdiv i32 %29, 2
  %31 = sext i32 %30 to i64
  %32 = icmp slt i64 %indvars.iv.next.i, %31
  br i1 %32, label %13, label %Vec_IntReverseOrder.exit, !llvm.loop !10

Vec_IntReverseOrder.exit:                         ; preds = %13, %._crit_edge
  %.val37 = phi i32 [ %10, %._crit_edge ], [ %29, %13 ]
  %33 = icmp sgt i32 %.val37, 0
  br i1 %33, label %.lr.ph40, label %Vec_IntReverseOrder.exit29

.lr.ph40:                                         ; preds = %Vec_IntReverseOrder.exit
  %34 = getelementptr i8, ptr %0, i64 8
  br label %38

.loopexit.loopexit:                               ; preds = %.lr.ph35
  %35 = trunc nsw i64 %indvars.iv.next to i32
  br label %.loopexit

.loopexit:                                        ; preds = %.loopexit.loopexit, %38
  %.2.lcssa = phi i32 [ %.139, %38 ], [ %35, %.loopexit.loopexit ]
  %.val = load i32, ptr %9, align 4
  %36 = sext i32 %.val to i64
  %37 = icmp slt i64 %indvars.iv.next49, %36
  br i1 %37, label %38, label %.critedge, !llvm.loop !11

38:                                               ; preds = %.lr.ph40, %.loopexit
  %indvars.iv48 = phi i64 [ 0, %.lr.ph40 ], [ %indvars.iv.next49, %.loopexit ]
  %.139 = phi i32 [ %.0.lcssa, %.lr.ph40 ], [ %.2.lcssa, %.loopexit ]
  %.val25 = load ptr, ptr %34, align 8
  %39 = getelementptr inbounds nuw i32, ptr %.val25, i64 %indvars.iv48
  %40 = load i32, ptr %39, align 4
  %indvars.iv.next49 = add nuw nsw i64 %indvars.iv48, 1
  %41 = getelementptr inbounds nuw i32, ptr %1, i64 %indvars.iv.next49
  store i32 %.139, ptr %41, align 4
  %42 = icmp sgt i32 %40, 0
  br i1 %42, label %.lr.ph35.preheader, label %.loopexit

.lr.ph35.preheader:                               ; preds = %38
  %43 = sext i32 %.139 to i64
  %44 = trunc nuw nsw i64 %indvars.iv.next49 to i32
  br label %.lr.ph35

.lr.ph35:                                         ; preds = %.lr.ph35.preheader, %.lr.ph35
  %indvars.iv = phi i64 [ %43, %.lr.ph35.preheader ], [ %indvars.iv.next, %.lr.ph35 ]
  %.12432 = phi i32 [ 0, %.lr.ph35.preheader ], [ %46, %.lr.ph35 ]
  %indvars.iv.next = add nsw i64 %indvars.iv, 1
  %45 = getelementptr inbounds i32, ptr %2, i64 %indvars.iv
  store i32 %44, ptr %45, align 4
  %46 = add nuw nsw i32 %.12432, 1
  %exitcond.not = icmp eq i32 %46, %40
  br i1 %exitcond.not, label %.loopexit.loopexit, label %.lr.ph35, !llvm.loop !12

.critedge:                                        ; preds = %.loopexit
  %47 = icmp sgt i32 %.val, 1
  br i1 %47, label %.lr.ph.i26, label %Vec_IntReverseOrder.exit29

.lr.ph.i26:                                       ; preds = %.critedge
  %48 = getelementptr inbounds nuw i8, ptr %0, i64 8
  br label %49

49:                                               ; preds = %49, %.lr.ph.i26
  %indvars.iv.i27 = phi i64 [ 0, %.lr.ph.i26 ], [ %indvars.iv.next.i28, %49 ]
  %50 = phi i32 [ %.val, %.lr.ph.i26 ], [ %65, %49 ]
  %51 = load ptr, ptr %48, align 8
  %52 = getelementptr inbounds nuw i32, ptr %51, i64 %indvars.iv.i27
  %53 = load i32, ptr %52, align 4
  %54 = trunc nuw nsw i64 %indvars.iv.i27 to i32
  %55 = xor i32 %54, -1
  %56 = add i32 %50, %55
  %57 = sext i32 %56 to i64
  %58 = getelementptr inbounds i32, ptr %51, i64 %57
  %59 = load i32, ptr %58, align 4
  store i32 %59, ptr %52, align 4
  %60 = load ptr, ptr %48, align 8
  %61 = load i32, ptr %9, align 4
  %62 = add i32 %61, %55
  %63 = sext i32 %62 to i64
  %64 = getelementptr inbounds i32, ptr %60, i64 %63
  store i32 %53, ptr %64, align 4
  %indvars.iv.next.i28 = add nuw nsw i64 %indvars.iv.i27, 1
  %65 = load i32, ptr %9, align 4
  %66 = sdiv i32 %65, 2
  %67 = sext i32 %66 to i64
  %68 = icmp slt i64 %indvars.iv.next.i28, %67
  br i1 %68, label %49, label %Vec_IntReverseOrder.exit29, !llvm.loop !10

Vec_IntReverseOrder.exit29:                       ; preds = %49, %Vec_IntReverseOrder.exit, %.critedge
  ret void
}